; ModuleID = '30/70.c'
source_filename = "30/70.c"
target datalayout = "e-m:e-p270:32:32-p271:32:32-p272:64:64-i64:64-f80:128-n8:16:32:64-S128"
target triple = "x86_64-pc-linux-gnu"

@.str = private unnamed_addr constant [3 x i8] c"%d\00", align 1

; Function Attrs: noinline nounwind uwtable
define dso_local i32 @main() #0 {
  %1 = alloca i32, align 4
  %2 = alloca [100 x i32], align 16
  %3 = alloca i32, align 4
  %4 = alloca i32, align 4
  %5 = alloca i32, align 4
  %6 = alloca i32, align 4
  store i32 0, i32* %1, align 4
  %7 = call i32 (i8*, ...) @__isoc99_scanf(i8* getelementptr inbounds ([3 x i8], [3 x i8]* @.str, i64 0, i64 0), i32* %5)
  store i32 0, i32* %4, align 4
  store i32 1, i32* %3, align 4
  br label %8

8:                                                ; preds = %38, %0
  %9 = load i32, i32* %3, align 4
  %10 = load i32, i32* %5, align 4
  %11 = icmp sle i32 %9, %10
  br i1 %11, label %12, label %41

12:                                               ; preds = %8
  %13 = load i32, i32* %3, align 4
  %14 = srem i32 %13, 10
  %15 = getelementptr inbounds [100 x i32], [100 x i32]* %2, i64 0, i64 0
  store i32 %14, i32* %15, align 16
  %16 = load i32, i32* %3, align 4
  %17 = sdiv i32 %16, 10
  %18 = getelementptr inbounds [100 x i32], [100 x i32]* %2, i64 0, i64 1
  store i32 %17, i32* %18, align 4
  %19 = load i32, i32* %3, align 4
  %20 = srem i32 %19, 7
  store i32 %20, i32* %6, align 4
  %21 = getelementptr inbounds [100 x i32], [100 x i32]* %2, i64 0, i64 0
  %22 = load i32, i32* %21, align 16
  %23 = icmp ne i32 %22, 7
  br i1 %23, label %24, label %37

24:                                               ; preds = %12
  %25 = getelementptr inbounds [100 x i32], [100 x i32]* %2, i64 0, i64 1
  %26 = load i32, i32* %25, align 4
  %27 = icmp ne i32 %26, 7
  br i1 %27, label %28, label %37

28:                                               ; preds = %24
  %29 = load i32, i32* %6, align 4
  %30 = icmp ne i32 %29, 0
  br i1 %30, label %31, label %37

31:                                               ; preds = %28
  %32 = load i32, i32* %3, align 4
  %33 = load i32, i32* %3, align 4
  %34 = mul nsw i32 %32, %33
  %35 = load i32, i32* %4, align 4
  %36 = add nsw i32 %35, %34
  store i32 %36, i32* %4, align 4
  br label %37

37:                                               ; preds = %31, %28, %24, %12
  br label %38

38:                                               ; preds = %37
  %39 = load i32, i32* %3, align 4
  %40 = add nsw i32 %39, 1
  store i32 %40, i32* %3, align 4
  br label %8

41:                                               ; preds = %8
  %42 = load i32, i32* %4, align 4
  %43 = call i32 (i8*, ...) @printf(i8* getelementptr inbounds ([3 x i8], [3 x i8]* @.str, i64 0, i64 0), i32 %42)
  ret i32 0
}

declare dso_local i32 @__isoc99_scanf(i8*, ...) #1

declare dso_local i32 @printf(i8*, ...) #1


!llvm.module.flags = !{!0}
!llvm.ident = !{!1}

!0 = !{i32 1, !"wchar_size", i32 4}
!1 = !{!"clang version 10.0.0-4ubuntu1 "}
